; Function Attrs: nounwind uwtable
define internal i64 @H5O__fill_new_shared_size(ptr noundef %0, i1 noundef zeroext %1, ptr noundef %2) #0 {
  %4 = load i32, ptr %2, align 8
  %5 = add i32 %4, -3
  %switch = icmp ult i32 %5, -2
  %brmerge = or i1 %switch, %1
  br i1 %brmerge, label %13, label %6

6:                                                ; preds = %3
  %7 = tail call i64 @H5O__shared_size(ptr noundef %0, ptr noundef nonnull %2) #8
  %8 = icmp eq i64 %7, 0
  br i1 %8, label %9, label %H5O__fill_new_size.exit

9:                                                ; preds = %6
  %10 = load i64, ptr @H5E_OHDR_g, align 8
  %11 = load i64, ptr @H5E_CANTGET_g, align 8
  %12 = tail call i32 (ptr, ptr, i32, i64, i64, ptr, ...) @H5E_printf_stack(ptr noundef nonnull @.str.10, ptr noundef nonnull @__func__.H5O__fill_new_shared_size, i32 noundef 167, i64 noundef %10, i64 noundef %11, ptr noundef nonnull @.str.21) #8
  br label %H5O__fill_new_size.exit

13:                                               ; preds = %3
  %14 = getelementptr inbounds i8, ptr %2, i64 40
  %15 = load i32, ptr %14, align 8
  %16 = icmp ult i32 %15, 3
  br i1 %16, label %17, label %26

17:                                               ; preds = %13
  %18 = getelementptr inbounds i8, ptr %2, i64 80
  %19 = load i8, ptr %18, align 8
  %20 = trunc i8 %19 to i1
  br i1 %20, label %21, label %H5O__fill_new_size.exit

21:                                               ; preds = %17
  %22 = getelementptr inbounds i8, ptr %2, i64 56
  %23 = load i64, ptr %22, align 8
  %24 = icmp sgt i64 %23, 0
  %25 = add nuw i64 %23, 8
  %spec.select.i = select i1 %24, i64 %25, i64 8
  br label %H5O__fill_new_size.exit

26:                                               ; preds = %13
  %27 = getelementptr inbounds i8, ptr %2, i64 56
  %28 = load i64, ptr %27, align 8
  %29 = icmp sgt i64 %28, 0
  %30 = add nuw i64 %28, 6
  %spec.select11.i = select i1 %29, i64 %30, i64 2
  br label %H5O__fill_new_size.exit

H5O__fill_new_size.exit:                          ; preds = %26, %21, %17, %6, %9
  %.0 = phi i64 [ 0, %9 ], [ %7, %6 ], [ %spec.select.i, %21 ], [ 4, %17 ], [ %spec.select11.i, %26 ]
  ret i64 %.0
}